target datalayout = "e-m:e-p270:32:32-p271:32:32-p272:64:64-i64:64-i128:128-f80:128-n8:16:32:64-S128"
target triple = "x86_64-pc-linux-gnu"

%"struct.std::pair.7" = type <{ ptr, i32, [4 x i8] }>

; Function Attrs: mustprogress nounwind uwtable
define linkonce_odr hidden void @_ZNSt4pairIPKciEC2IDniTnNSt9enable_ifIXaaclsr5_PCCPE22_MoveConstructiblePairIT_T0_EEclsr5_PCCPE30_ImplicitlyMoveConvertiblePairIS5_S6_EEEbE4typeELb1EEEOS5_OS6_(ptr noundef nonnull align 8 dereferenceable(12) %0, ptr noundef nonnull align 8 dereferenceable(8) %1, ptr noundef nonnull align 4 dereferenceable(4) %2) unnamed_addr #7 comdat align 2 {
  %4 = alloca ptr, align 8
  %5 = alloca ptr, align 8
  %6 = alloca ptr, align 8
  store ptr %0, ptr %4, align 8, !tbaa !115
  store ptr %1, ptr %5, align 8, !tbaa !45
  store ptr %2, ptr %6, align 8, !tbaa !29
  %7 = load ptr, ptr %4, align 8
  %8 = getelementptr inbounds nuw %"struct.std::pair.7", ptr %7, i32 0, i32 0
  store ptr null, ptr %8, align 8, !tbaa !86
  %9 = getelementptr inbounds nuw %"struct.std::pair.7", ptr %7, i32 0, i32 1
  %10 = load ptr, ptr %6, align 8, !tbaa !29
  %11 = load i32, ptr %10, align 4, !tbaa !19
  store i32 %11, ptr %9, align 8, !tbaa !88
  ret void
}

; Function Attrs: mustprogress nounwind uwtable
define linkonce_odr hidden void @_ZNSt4pairIPKciEC2IS1_RjTnNSt9enable_ifIXaaclsr5_PCCPE22_MoveConstructiblePairIT_T0_EEclsr5_PCCPE30_ImplicitlyMoveConvertiblePairIS6_S7_EEEbE4typeELb1EEEOS6_OS7_(ptr noundef nonnull align 8 dereferenceable(12) %0, ptr noundef nonnull align 8 dereferenceable(8) %1, ptr noundef nonnull align 4 dereferenceable(4) %2) unnamed_addr #7 comdat align 2 {
  %4 = alloca ptr, align 8
  %5 = alloca ptr, align 8
  %6 = alloca ptr, align 8
  store ptr %0, ptr %4, align 8, !tbaa !115
  store ptr %1, ptr %5, align 8, !tbaa !54
  store ptr %2, ptr %6, align 8, !tbaa !29
  %7 = load ptr, ptr %4, align 8
  %8 = getelementptr inbounds nuw %"struct.std::pair.7", ptr %7, i32 0, i32 0
  %9 = load ptr, ptr %5, align 8, !tbaa !54
  %10 = load ptr, ptr %9, align 8, !tbaa !16
  store ptr %10, ptr %8, align 8, !tbaa !86
  %11 = getelementptr inbounds nuw %"struct.std::pair.7", ptr %7, i32 0, i32 1
  %12 = load ptr, ptr %6, align 8, !tbaa !29
  %13 = load i32, ptr %12, align 4, !tbaa !19
  store i32 %13, ptr %11, align 8, !tbaa !88
  ret void
}

; Function Attrs: mustprogress uwtable
define hidden { ptr, i32 } @_ZN6google8protobuf8internal16ReadSizeFallbackEPKcj(ptr noundef %0, i32 noundef %1) #4 {
  %3 = alloca %"struct.std::pair.7", align 8
  %4 = alloca ptr, align 8
  %5 = alloca i32, align 4
  %6 = alloca i32, align 4
  %7 = alloca i32, align 4
  %8 = alloca i32, align 4
  %9 = alloca ptr, align 8
  %10 = alloca i32, align 4
  %11 = alloca ptr, align 8
  %12 = alloca i32, align 4
  %13 = alloca ptr, align 8
  %14 = alloca i32, align 4
  %15 = alloca ptr, align 8
  store ptr %0, ptr %4, align 8, !tbaa !16
  store i32 %1, ptr %5, align 4, !tbaa !19
  call void @llvm.lifetime.start.p0(i64 4, ptr %6) #3
  store i32 1, ptr %6, align 4, !tbaa !19
  br label %16

16:                                               ; preds = %49, %2
  %17 = load i32, ptr %6, align 4, !tbaa !19
  %18 = icmp ult i32 %17, 4
  br i1 %18, label %20, label %19

19:                                               ; preds = %16
  store i32 2, ptr %7, align 4
  br label %52

20:                                               ; preds = %16
  call void @llvm.lifetime.start.p0(i64 4, ptr %8) #3
  %21 = load ptr, ptr %4, align 8, !tbaa !16
  %22 = load i32, ptr %6, align 4, !tbaa !19
  %23 = zext i32 %22 to i64
  %24 = getelementptr inbounds nuw i8, ptr %21, i64 %23
  %25 = load i8, ptr %24, align 1, !tbaa !85
  %26 = zext i8 %25 to i32
  store i32 %26, ptr %8, align 4, !tbaa !19
  %27 = load i32, ptr %8, align 4, !tbaa !19
  %28 = sub i32 %27, 1
  %29 = load i32, ptr %6, align 4, !tbaa !19
  %30 = mul i32 7, %29
  %31 = shl i32 %28, %30
  %32 = load i32, ptr %5, align 4, !tbaa !19
  %33 = add i32 %32, %31
  store i32 %33, ptr %5, align 4, !tbaa !19
  %34 = load i32, ptr %8, align 4, !tbaa !19
  %35 = icmp ult i32 %34, 128
  %36 = zext i1 %35 to i64
  %37 = call i64 @llvm.expect.i64(i64 %36, i64 1)
  %38 = icmp ne i64 %37, 0
  br i1 %38, label %39, label %45

39:                                               ; preds = %20
  call void @llvm.lifetime.start.p0(i64 8, ptr %9) #3
  %40 = load ptr, ptr %4, align 8, !tbaa !16
  %41 = load i32, ptr %6, align 4, !tbaa !19
  %42 = zext i32 %41 to i64
  %43 = getelementptr inbounds nuw i8, ptr %40, i64 %42
  %44 = getelementptr inbounds i8, ptr %43, i64 1
  store ptr %44, ptr %9, align 8, !tbaa !16
  call void @_ZNSt4pairIPKciEC2IS1_RjTnNSt9enable_ifIXaaclsr5_PCCPE22_MoveConstructiblePairIT_T0_EEclsr5_PCCPE30_ImplicitlyMoveConvertiblePairIS6_S7_EEEbE4typeELb1EEEOS6_OS7_(ptr noundef nonnull align 8 dereferenceable(12) %3, ptr noundef nonnull align 8 dereferenceable(8) %9, ptr noundef nonnull align 4 dereferenceable(4) %5)
  call void @llvm.lifetime.end.p0(i64 8, ptr %9) #3
  store i32 1, ptr %7, align 4
  br label %46

45:                                               ; preds = %20
  store i32 0, ptr %7, align 4
  br label %46

46:                                               ; preds = %45, %39
  call void @llvm.lifetime.end.p0(i64 4, ptr %8) #3
  %47 = load i32, ptr %7, align 4
  switch i32 %47, label %52 [
    i32 0, label %48
  ]

48:                                               ; preds = %46
  br label %49

49:                                               ; preds = %48
  %50 = load i32, ptr %6, align 4, !tbaa !19
  %51 = add i32 %50, 1
  store i32 %51, ptr %6, align 4, !tbaa !19
  br label %16, !llvm.loop !114

52:                                               ; preds = %46, %19
  call void @llvm.lifetime.end.p0(i64 4, ptr %6) #3
  %53 = load i32, ptr %7, align 4
  switch i32 %53, label %83 [
    i32 2, label %54
    i32 1, label %81
  ]

54:                                               ; preds = %52
  call void @llvm.lifetime.start.p0(i64 4, ptr %10) #3
  %55 = load ptr, ptr %4, align 8, !tbaa !16
  %56 = getelementptr inbounds i8, ptr %55, i64 4
  %57 = load i8, ptr %56, align 1, !tbaa !85
  %58 = zext i8 %57 to i32
  store i32 %58, ptr %10, align 4, !tbaa !19
  %59 = load i32, ptr %10, align 4, !tbaa !19
  %60 = icmp uge i32 %59, 8
  %61 = zext i1 %60 to i64
  %62 = call i64 @llvm.expect.i64(i64 %61, i64 0)
  %63 = icmp ne i64 %62, 0
  br i1 %63, label %64, label %65

64:                                               ; preds = %54
  call void @llvm.lifetime.start.p0(i64 8, ptr %11) #3
  store ptr null, ptr %11, align 8, !tbaa !31
  call void @llvm.lifetime.start.p0(i64 4, ptr %12) #3
  store i32 0, ptr %12, align 4, !tbaa !19
  call void @_ZNSt4pairIPKciEC2IDniTnNSt9enable_ifIXaaclsr5_PCCPE22_MoveConstructiblePairIT_T0_EEclsr5_PCCPE30_ImplicitlyMoveConvertiblePairIS5_S6_EEEbE4typeELb1EEEOS5_OS6_(ptr noundef nonnull align 8 dereferenceable(12) %3, ptr noundef nonnull align 8 dereferenceable(8) %11, ptr noundef nonnull align 4 dereferenceable(4) %12)
  call void @llvm.lifetime.end.p0(i64 4, ptr %12) #3
  call void @llvm.lifetime.end.p0(i64 8, ptr %11) #3
  store i32 1, ptr %7, align 4
  br label %80

65:                                               ; preds = %54
  %66 = load i32, ptr %10, align 4, !tbaa !19
  %67 = sub i32 %66, 1
  %68 = shl i32 %67, 28
  %69 = load i32, ptr %5, align 4, !tbaa !19
  %70 = add i32 %69, %68
  store i32 %70, ptr %5, align 4, !tbaa !19
  %71 = load i32, ptr %5, align 4, !tbaa !19
  %72 = icmp ugt i32 %71, 2147483631
  %73 = zext i1 %72 to i64
  %74 = call i64 @llvm.expect.i64(i64 %73, i64 0)
  %75 = icmp ne i64 %74, 0
  br i1 %75, label %76, label %77

76:                                               ; preds = %65
  call void @llvm.lifetime.start.p0(i64 8, ptr %13) #3
  store ptr null, ptr %13, align 8, !tbaa !31
  call void @llvm.lifetime.start.p0(i64 4, ptr %14) #3
  store i32 0, ptr %14, align 4, !tbaa !19
  call void @_ZNSt4pairIPKciEC2IDniTnNSt9enable_ifIXaaclsr5_PCCPE22_MoveConstructiblePairIT_T0_EEclsr5_PCCPE30_ImplicitlyMoveConvertiblePairIS5_S6_EEEbE4typeELb1EEEOS5_OS6_(ptr noundef nonnull align 8 dereferenceable(12) %3, ptr noundef nonnull align 8 dereferenceable(8) %13, ptr noundef nonnull align 4 dereferenceable(4) %14)
  call void @llvm.lifetime.end.p0(i64 4, ptr %14) #3
  call void @llvm.lifetime.end.p0(i64 8, ptr %13) #3
  store i32 1, ptr %7, align 4
  br label %80

77:                                               ; preds = %65
  call void @llvm.lifetime.start.p0(i64 8, ptr %15) #3
  %78 = load ptr, ptr %4, align 8, !tbaa !16
  %79 = getelementptr inbounds i8, ptr %78, i64 5
  store ptr %79, ptr %15, align 8, !tbaa !16
  call void @_ZNSt4pairIPKciEC2IS1_RjTnNSt9enable_ifIXaaclsr5_PCCPE22_MoveConstructiblePairIT_T0_EEclsr5_PCCPE30_ImplicitlyMoveConvertiblePairIS6_S7_EEEbE4typeELb1EEEOS6_OS7_(ptr noundef nonnull align 8 dereferenceable(12) %3, ptr noundef nonnull align 8 dereferenceable(8) %15, ptr noundef nonnull align 4 dereferenceable(4) %5)
  call void @llvm.lifetime.end.p0(i64 8, ptr %15) #3
  store i32 1, ptr %7, align 4
  br label %80

80:                                               ; preds = %77, %76, %64
  call void @llvm.lifetime.end.p0(i64 4, ptr %10) #3
  br label %81

81:                                               ; preds = %80, %52
  %82 = load { ptr, i32 }, ptr %3, align 8
  ret { ptr, i32 } %82

83:                                               ; preds = %52
  unreachable
}

; Function Attrs: inlinehint mustprogress uwtable
define linkonce_odr hidden noundef i32 @_ZN6google8protobuf8internal8ReadSizeEPPKc(ptr noundef %0) #6 comdat {
  %2 = alloca i32, align 4
  %3 = alloca ptr, align 8
  %4 = alloca ptr, align 8
  %5 = alloca i32, align 4
  %6 = alloca i32, align 4
  %7 = alloca %"struct.std::pair.7", align 8
  %8 = alloca { ptr, i32 }, align 8
  store ptr %0, ptr %3, align 8, !tbaa !54
  call void @llvm.lifetime.start.p0(i64 8, ptr %4) #3
  %9 = load ptr, ptr %3, align 8, !tbaa !54
  %10 = load ptr, ptr %9, align 8, !tbaa !16
  store ptr %10, ptr %4, align 8, !tbaa !16
  call void @llvm.lifetime.start.p0(i64 4, ptr %5) #3
  %11 = load ptr, ptr %4, align 8, !tbaa !16
  %12 = getelementptr inbounds i8, ptr %11, i64 0
  %13 = load i8, ptr %12, align 1, !tbaa !85
  %14 = zext i8 %13 to i32
  store i32 %14, ptr %5, align 4, !tbaa !19
  %15 = load i32, ptr %5, align 4, !tbaa !19
  %16 = icmp ult i32 %15, 128
  br i1 %16, label %17, label %22

17:                                               ; preds = %1
  %18 = load ptr, ptr %4, align 8, !tbaa !16
  %19 = getelementptr inbounds i8, ptr %18, i64 1
  %20 = load ptr, ptr %3, align 8, !tbaa !54
  store ptr %19, ptr %20, align 8, !tbaa !16
  %21 = load i32, ptr %5, align 4, !tbaa !19
  store i32 %21, ptr %2, align 4
  store i32 1, ptr %6, align 4
  br label %31

22:                                               ; preds = %1
  call void @llvm.lifetime.start.p0(i64 16, ptr %7) #3
  %23 = load ptr, ptr %4, align 8, !tbaa !16
  %24 = load i32, ptr %5, align 4, !tbaa !19
  %25 = call { ptr, i32 } @_ZN6google8protobuf8internal16ReadSizeFallbackEPKcj(ptr noundef %23, i32 noundef %24)
  store { ptr, i32 } %25, ptr %8, align 8
  call void @llvm.memcpy.p0.p0.i64(ptr align 8 %7, ptr align 8 %8, i64 12, i1 false)
  %26 = getelementptr inbounds nuw %"struct.std::pair.7", ptr %7, i32 0, i32 0
  %27 = load ptr, ptr %26, align 8, !tbaa !86
  %28 = load ptr, ptr %3, align 8, !tbaa !54
  store ptr %27, ptr %28, align 8, !tbaa !16
  %29 = getelementptr inbounds nuw %"struct.std::pair.7", ptr %7, i32 0, i32 1
  %30 = load i32, ptr %29, align 8, !tbaa !88
  store i32 %30, ptr %2, align 4
  store i32 1, ptr %6, align 4
  call void @llvm.lifetime.end.p0(i64 16, ptr %7) #3
  br label %31

31:                                               ; preds = %22, %17
  call void @llvm.lifetime.end.p0(i64 4, ptr %5) #3
  call void @llvm.lifetime.end.p0(i64 8, ptr %4) #3
  %32 = load i32, ptr %2, align 4
  ret i32 %32
}

; Function Attrs: mustprogress uwtable
define linkonce_odr hidden noundef ptr @_ZN6google8protobuf8internal11FixedParserIlEEPKcPvS4_PNS1_12ParseContextE(ptr noundef %0, ptr noundef %1, ptr noundef %2) #4 comdat {
  %4 = alloca ptr, align 8
  %5 = alloca ptr, align 8
  %6 = alloca ptr, align 8
  %7 = alloca i32, align 4
  store ptr %0, ptr %4, align 8, !tbaa !25
  store ptr %1, ptr %5, align 8, !tbaa !16
  store ptr %2, ptr %6, align 8, !tbaa !77
  call void @llvm.lifetime.start.p0(i64 4, ptr %7) #3
  %8 = call noundef i32 @_ZN6google8protobuf8internal8ReadSizeEPPKc(ptr noundef %5)
  store i32 %8, ptr %7, align 4, !tbaa !19
  %9 = load ptr, ptr %6, align 8, !tbaa !77
  %10 = load ptr, ptr %5, align 8, !tbaa !16
  %11 = load i32, ptr %7, align 4, !tbaa !19
  %12 = load ptr, ptr %4, align 8, !tbaa !25
  %13 = call noundef ptr @_ZN6google8protobuf8internal18EpsCopyInputStream15ReadPackedFixedIlEEPKcS5_iPNS0_13RepeatedFieldIT_EE(ptr noundef nonnull align 8 dereferenceable(88) %9, ptr noundef %10, i32 noundef %11, ptr noundef %12)
  call void @llvm.lifetime.end.p0(i64 4, ptr %7) #3
  ret ptr %13
}

; Function Attrs: mustprogress uwtable
define hidden noundef ptr @_ZN6google8protobuf8internal20PackedSFixed64ParserEPvPKcPNS1_12ParseContextE(ptr noundef %0, ptr noundef %1, ptr noundef %2) #4 {
  %4 = alloca ptr, align 8
  %5 = alloca ptr, align 8
  %6 = alloca ptr, align 8
  store ptr %0, ptr %4, align 8, !tbaa !25
  store ptr %1, ptr %5, align 8, !tbaa !16
  store ptr %2, ptr %6, align 8, !tbaa !77
  %7 = load ptr, ptr %4, align 8, !tbaa !25
  %8 = load ptr, ptr %5, align 8, !tbaa !16
  %9 = load ptr, ptr %6, align 8, !tbaa !77
  %10 = call noundef ptr @_ZN6google8protobuf8internal11FixedParserIlEEPKcPvS4_PNS1_12ParseContextE(ptr noundef %7, ptr noundef %8, ptr noundef %9)
  ret ptr %10
}